target datalayout = "e-m:e-p270:32:32-p271:32:32-p272:64:64-i64:64-i128:128-f80:128-n8:16:32:64-S128"
target triple = "x86_64-pc-linux-gnu"

%"class.icu_77::FieldPositionHandler.base" = type <{ ptr, i32 }>
%"class.icu_77::UObject" = type { ptr }
%"class.icu_77::FieldPositionIteratorHandler" = type { %"class.icu_77::FieldPositionHandler.base", ptr, ptr, i32, i32 }
%"class.icu_77::UVector32" = type { %"class.icu_77::UObject", i32, i32, i32, ptr }

; Function Attrs: inlinehint mustprogress nounwind uwtable
define linkonce_odr noundef i32 @_ZNK6icu_779UVector3210elementAtiEi(ptr noundef nonnull align 8 dereferenceable(32) %0, i32 noundef %1) #2 comdat align 2 {
  %3 = alloca ptr, align 8
  %4 = alloca i32, align 4
  store ptr %0, ptr %3, align 8, !tbaa !42
  store i32 %1, ptr %4, align 4, !tbaa !8
  %5 = load ptr, ptr %3, align 8
  %6 = load i32, ptr %4, align 4, !tbaa !8
  %7 = icmp sge i32 %6, 0
  br i1 %7, label %8, label %25

8:                                                ; preds = %2
  %9 = getelementptr inbounds nuw %"class.icu_77::UVector32", ptr %5, i32 0, i32 1
  %10 = load i32, ptr %9, align 8, !tbaa !43
  %11 = icmp sgt i32 %10, 0
  br i1 %11, label %12, label %25

12:                                               ; preds = %8
  %13 = getelementptr inbounds nuw %"class.icu_77::UVector32", ptr %5, i32 0, i32 1
  %14 = load i32, ptr %13, align 8, !tbaa !43
  %15 = load i32, ptr %4, align 4, !tbaa !8
  %16 = sub nsw i32 %14, %15
  %17 = icmp sgt i32 %16, 0
  br i1 %17, label %18, label %25

18:                                               ; preds = %12
  %19 = getelementptr inbounds nuw %"class.icu_77::UVector32", ptr %5, i32 0, i32 4
  %20 = load ptr, ptr %19, align 8, !tbaa !46
  %21 = load i32, ptr %4, align 4, !tbaa !8
  %22 = sext i32 %21 to i64
  %23 = getelementptr inbounds i32, ptr %20, i64 %22
  %24 = load i32, ptr %23, align 4, !tbaa !8
  br label %26

25:                                               ; preds = %12, %8, %2
  br label %26

26:                                               ; preds = %25, %18
  %27 = phi i32 [ %24, %18 ], [ 0, %25 ]
  ret i32 %27
}

; Function Attrs: inlinehint mustprogress nounwind uwtable
define linkonce_odr noundef i32 @_ZNK6icu_779UVector324sizeEv(ptr noundef nonnull align 8 dereferenceable(32) %0) #2 comdat align 2 {
  %2 = alloca ptr, align 8
  store ptr %0, ptr %2, align 8, !tbaa !42
  %3 = load ptr, ptr %2, align 8
  %4 = getelementptr inbounds nuw %"class.icu_77::UVector32", ptr %3, i32 0, i32 1
  %5 = load i32, ptr %4, align 8, !tbaa !43
  ret i32 %5
}

; Function Attrs: inlinehint mustprogress nounwind uwtable
define internal noundef signext i8 @_ZL9U_SUCCESS10UErrorCode(i32 noundef %0) #2 {
  %2 = alloca i32, align 4
  store i32 %0, ptr %2, align 4, !tbaa !39
  %3 = load i32, ptr %2, align 4, !tbaa !39
  %4 = icmp sle i32 %3, 0
  %5 = zext i1 %4 to i8
  ret i8 %5
}

; Function Attrs: mustprogress uwtable
define void @_ZN6icu_7728FieldPositionIteratorHandler9shiftLastEi(ptr noundef nonnull align 8 dereferenceable(40) %0, i32 noundef %1) unnamed_addr #4 align 2 {
  %3 = alloca ptr, align 8
  %4 = alloca i32, align 4
  %5 = alloca i32, align 4
  store ptr %0, ptr %3, align 8, !tbaa !28
  store i32 %1, ptr %4, align 4, !tbaa !8
  %6 = load ptr, ptr %3, align 8
  %7 = getelementptr inbounds nuw %"class.icu_77::FieldPositionIteratorHandler", ptr %6, i32 0, i32 3
  %8 = load i32, ptr %7, align 8, !tbaa !40
  %9 = call noundef signext i8 @_ZL9U_SUCCESS10UErrorCode(i32 noundef %8)
  %10 = icmp ne i8 %9, 0
  br i1 %10, label %11, label %44

11:                                               ; preds = %2
  %12 = load i32, ptr %4, align 4, !tbaa !8
  %13 = icmp ne i32 %12, 0
  br i1 %13, label %14, label %44

14:                                               ; preds = %11
  call void @llvm.lifetime.start.p0(i64 4, ptr %5) #10
  %15 = getelementptr inbounds nuw %"class.icu_77::FieldPositionIteratorHandler", ptr %6, i32 0, i32 2
  %16 = load ptr, ptr %15, align 8, !tbaa !38
  %17 = call noundef i32 @_ZNK6icu_779UVector324sizeEv(ptr noundef nonnull align 8 dereferenceable(32) %16)
  store i32 %17, ptr %5, align 4, !tbaa !8
  %18 = load i32, ptr %5, align 4, !tbaa !8
  %19 = icmp sgt i32 %18, 0
  br i1 %19, label %20, label %43

20:                                               ; preds = %14
  %21 = load i32, ptr %5, align 4, !tbaa !8
  %22 = add nsw i32 %21, -1
  store i32 %22, ptr %5, align 4, !tbaa !8
  %23 = getelementptr inbounds nuw %"class.icu_77::FieldPositionIteratorHandler", ptr %6, i32 0, i32 2
  %24 = load ptr, ptr %23, align 8, !tbaa !38
  %25 = load i32, ptr %4, align 4, !tbaa !8
  %26 = getelementptr inbounds nuw %"class.icu_77::FieldPositionIteratorHandler", ptr %6, i32 0, i32 2
  %27 = load ptr, ptr %26, align 8, !tbaa !38
  %28 = load i32, ptr %5, align 4, !tbaa !8
  %29 = call noundef i32 @_ZNK6icu_779UVector3210elementAtiEi(ptr noundef nonnull align 8 dereferenceable(32) %27, i32 noundef %28)
  %30 = add nsw i32 %25, %29
  %31 = load i32, ptr %5, align 4, !tbaa !8
  call void @_ZN6icu_779UVector3212setElementAtEii(ptr noundef nonnull align 8 dereferenceable(32) %24, i32 noundef %30, i32 noundef %31)
  %32 = load i32, ptr %5, align 4, !tbaa !8
  %33 = add nsw i32 %32, -1
  store i32 %33, ptr %5, align 4, !tbaa !8
  %34 = getelementptr inbounds nuw %"class.icu_77::FieldPositionIteratorHandler", ptr %6, i32 0, i32 2
  %35 = load ptr, ptr %34, align 8, !tbaa !38
  %36 = load i32, ptr %4, align 4, !tbaa !8
  %37 = getelementptr inbounds nuw %"class.icu_77::FieldPositionIteratorHandler", ptr %6, i32 0, i32 2
  %38 = load ptr, ptr %37, align 8, !tbaa !38
  %39 = load i32, ptr %5, align 4, !tbaa !8
  %40 = call noundef i32 @_ZNK6icu_779UVector3210elementAtiEi(ptr noundef nonnull align 8 dereferenceable(32) %38, i32 noundef %39)
  %41 = add nsw i32 %36, %40
  %42 = load i32, ptr %5, align 4, !tbaa !8
  call void @_ZN6icu_779UVector3212setElementAtEii(ptr noundef nonnull align 8 dereferenceable(32) %35, i32 noundef %41, i32 noundef %42)
  br label %43

43:                                               ; preds = %20, %14
  call void @llvm.lifetime.end.p0(i64 4, ptr %5) #10
  br label %44

44:                                               ; preds = %43, %11, %2
  ret void
}