; Function Attrs: mustprogress uwtable
define void @_ZN6icu_7728FieldPositionIteratorHandler9shiftLastEi(ptr noundef nonnull readonly align 8 captures(none) dereferenceable(40) %0, i32 noundef %1) unnamed_addr #8 align 2 {
  %3 = getelementptr inbounds nuw i8, ptr %0, i64 32
  %4 = load i32, ptr %3, align 8, !tbaa !30
  %5 = icmp slt i32 %4, 1
  %6 = icmp ne i32 %1, 0
  %or.cond = and i1 %6, %5
  br i1 %or.cond, label %7, label %34

7:                                                ; preds = %2
  %8 = getelementptr inbounds nuw i8, ptr %0, i64 24
  %9 = load ptr, ptr %8, align 8, !tbaa !28
  %10 = getelementptr inbounds nuw i8, ptr %9, i64 8
  %11 = load i32, ptr %10, align 8, !tbaa !32
  %12 = icmp sgt i32 %11, 0
  br i1 %12, label %_ZNK6icu_779UVector3210elementAtiEi.exit, label %34

_ZNK6icu_779UVector3210elementAtiEi.exit:         ; preds = %7
  %13 = add nsw i32 %11, -1
  %14 = getelementptr inbounds nuw i8, ptr %9, i64 24
  %15 = load ptr, ptr %14, align 8, !tbaa !35
  %16 = zext nneg i32 %13 to i64
  %17 = getelementptr inbounds nuw i32, ptr %15, i64 %16
  %18 = load i32, ptr %17, align 4, !tbaa !36
  %19 = add nsw i32 %18, %1
  tail call void @_ZN6icu_779UVector3212setElementAtEii(ptr noundef nonnull align 8 dereferenceable(32) %9, i32 noundef %19, i32 noundef %13)
  %20 = add nsw i32 %11, -2
  %21 = load ptr, ptr %8, align 8, !tbaa !28
  %22 = icmp ne i32 %11, 1
  %23 = getelementptr inbounds nuw i8, ptr %21, i64 8
  %24 = load i32, ptr %23, align 8
  %25 = icmp sgt i32 %24, %20
  %or.cond.i12 = select i1 %22, i1 %25, i1 false
  br i1 %or.cond.i12, label %26, label %_ZNK6icu_779UVector3210elementAtiEi.exit13

26:                                               ; preds = %_ZNK6icu_779UVector3210elementAtiEi.exit
  %27 = getelementptr inbounds nuw i8, ptr %21, i64 24
  %28 = load ptr, ptr %27, align 8, !tbaa !35
  %29 = zext nneg i32 %20 to i64
  %30 = getelementptr inbounds nuw i32, ptr %28, i64 %29
  %31 = load i32, ptr %30, align 4, !tbaa !36
  br label %_ZNK6icu_779UVector3210elementAtiEi.exit13

_ZNK6icu_779UVector3210elementAtiEi.exit13:       ; preds = %_ZNK6icu_779UVector3210elementAtiEi.exit, %26
  %32 = phi i32 [ %31, %26 ], [ 0, %_ZNK6icu_779UVector3210elementAtiEi.exit ]
  %33 = add nsw i32 %32, %1
  tail call void @_ZN6icu_779UVector3212setElementAtEii(ptr noundef nonnull align 8 dereferenceable(32) %21, i32 noundef %33, i32 noundef %20)
  br label %34

34:                                               ; preds = %7, %_ZNK6icu_779UVector3210elementAtiEi.exit13, %2
  ret void
}